target datalayout = "e-m:e-p270:32:32-p271:32:32-p272:64:64-i64:64-i128:128-f80:128-n8:16:32:64-S128"
target triple = "x86_64-unknown-linux-gnu"

%class.context_params = type { i32, i32, %"class.std::__cxx11::basic_string", %"class.std::__cxx11::basic_string", i8, i8, i8, i8, i8, i8, i8, i8, i8, i8, i8, %"class.std::__cxx11::basic_string" }
%"class.std::__cxx11::basic_string" = type { %"struct.std::__cxx11::basic_string<char>::_Alloc_hider", i64, %union.anon }
%"struct.std::__cxx11::basic_string<char>::_Alloc_hider" = type { ptr }
%union.anon = type { i64, [8 x i8] }

@.str.7 = private unnamed_addr constant [8 x i8] c"timeout\00", align 1
@.str.8 = private unnamed_addr constant [7 x i8] c"rlimit\00", align 1
@.str.9 = private unnamed_addr constant [11 x i8] c"type_check\00", align 1
@.str.10 = private unnamed_addr constant [18 x i8] c"well_sorted_check\00", align 1
@.str.11 = private unnamed_addr constant [12 x i8] c"auto_config\00", align 1
@.str.12 = private unnamed_addr constant [6 x i8] c"proof\00", align 1
@.str.13 = private unnamed_addr constant [6 x i8] c"model\00", align 1
@.str.14 = private unnamed_addr constant [15 x i8] c"model_validate\00", align 1
@.str.15 = private unnamed_addr constant [12 x i8] c"dump_models\00", align 1
@.str.16 = private unnamed_addr constant [6 x i8] c"stats\00", align 1
@.str.17 = private unnamed_addr constant [6 x i8] c"trace\00", align 1
@.str.18 = private unnamed_addr constant [16 x i8] c"trace_file_name\00", align 1
@.str.19 = private unnamed_addr constant [15 x i8] c"dot_proof_file\00", align 1
@.str.20 = private unnamed_addr constant [11 x i8] c"unsat_core\00", align 1
@.str.21 = private unnamed_addr constant [16 x i8] c"debug_ref_count\00", align 1
@.str.22 = private unnamed_addr constant [18 x i8] c"smtlib2_compliant\00", align 1
@.str.23 = private unnamed_addr constant [9 x i8] c"encoding\00", align 1
@.str.31 = private unnamed_addr constant [7 x i8] c"z3.log\00", align 1
@.str.32 = private unnamed_addr constant [10 x i8] c"proof.dot\00", align 1

; Function Attrs: mustprogress uwtable
define hidden void @_ZN14context_params11updt_paramsERK10params_ref(ptr noundef nonnull align 8 dereferenceable(120) %this, ptr noundef nonnull align 8 dereferenceable(8) %p) #4 align 2 {
entry:
  %this.addr = alloca ptr, align 8
  %p.addr = alloca ptr, align 8
  store ptr %this, ptr %this.addr, align 8
  store ptr %p, ptr %p.addr, align 8
  %this1 = load ptr, ptr %this.addr, align 8
  %0 = load ptr, ptr %p.addr, align 8
  %m_timeout = getelementptr inbounds %class.context_params, ptr %this1, i32 0, i32 1
  %1 = load i32, ptr %m_timeout, align 4
  %call = call noundef i32 @_ZNK10params_ref8get_uintEPKcj(ptr noundef nonnull align 8 dereferenceable(8) %0, ptr noundef @.str.7, i32 noundef %1)
  %m_timeout2 = getelementptr inbounds %class.context_params, ptr %this1, i32 0, i32 1
  store i32 %call, ptr %m_timeout2, align 4
  %2 = load ptr, ptr %p.addr, align 8
  %m_rlimit = getelementptr inbounds %class.context_params, ptr %this1, i32 0, i32 0
  %3 = load i32, ptr %m_rlimit, align 8
  %call3 = call noundef i32 @_ZNK10params_ref8get_uintEPKcj(ptr noundef nonnull align 8 dereferenceable(8) %2, ptr noundef @.str.8, i32 noundef %3)
  %m_rlimit4 = getelementptr inbounds %class.context_params, ptr %this1, i32 0, i32 0
  store i32 %call3, ptr %m_rlimit4, align 8
  %4 = load ptr, ptr %p.addr, align 8
  %5 = load ptr, ptr %p.addr, align 8
  %m_well_sorted_check = getelementptr inbounds %class.context_params, ptr %this1, i32 0, i32 8
  %6 = load i8, ptr %m_well_sorted_check, align 4
  %tobool = trunc i8 %6 to i1
  %call5 = call noundef zeroext i1 @_ZNK10params_ref8get_boolEPKcb(ptr noundef nonnull align 8 dereferenceable(8) %5, ptr noundef @.str.10, i1 noundef zeroext %tobool)
  %call6 = call noundef zeroext i1 @_ZNK10params_ref8get_boolEPKcb(ptr noundef nonnull align 8 dereferenceable(8) %4, ptr noundef @.str.9, i1 noundef zeroext %call5)
  %m_well_sorted_check7 = getelementptr inbounds %class.context_params, ptr %this1, i32 0, i32 8
  %frombool = zext i1 %call6 to i8
  store i8 %frombool, ptr %m_well_sorted_check7, align 4
  %7 = load ptr, ptr %p.addr, align 8
  %m_auto_config = getelementptr inbounds %class.context_params, ptr %this1, i32 0, i32 4
  %8 = load i8, ptr %m_auto_config, align 8
  %tobool8 = trunc i8 %8 to i1
  %call9 = call noundef zeroext i1 @_ZNK10params_ref8get_boolEPKcb(ptr noundef nonnull align 8 dereferenceable(8) %7, ptr noundef @.str.11, i1 noundef zeroext %tobool8)
  %m_auto_config10 = getelementptr inbounds %class.context_params, ptr %this1, i32 0, i32 4
  %frombool11 = zext i1 %call9 to i8
  store i8 %frombool11, ptr %m_auto_config10, align 8
  %9 = load ptr, ptr %p.addr, align 8
  %m_proof = getelementptr inbounds %class.context_params, ptr %this1, i32 0, i32 5
  %10 = load i8, ptr %m_proof, align 1
  %tobool12 = trunc i8 %10 to i1
  %call13 = call noundef zeroext i1 @_ZNK10params_ref8get_boolEPKcb(ptr noundef nonnull align 8 dereferenceable(8) %9, ptr noundef @.str.12, i1 noundef zeroext %tobool12)
  %m_proof14 = getelementptr inbounds %class.context_params, ptr %this1, i32 0, i32 5
  %frombool15 = zext i1 %call13 to i8
  store i8 %frombool15, ptr %m_proof14, align 1
  %11 = load ptr, ptr %p.addr, align 8
  %m_model = getelementptr inbounds %class.context_params, ptr %this1, i32 0, i32 9
  %12 = load i8, ptr %m_model, align 1
  %tobool16 = trunc i8 %12 to i1
  %call17 = call noundef zeroext i1 @_ZNK10params_ref8get_boolEPKcb(ptr noundef nonnull align 8 dereferenceable(8) %11, ptr noundef @.str.13, i1 noundef zeroext %tobool16)
  %m_model18 = getelementptr inbounds %class.context_params, ptr %this1, i32 0, i32 9
  %frombool19 = zext i1 %call17 to i8
  store i8 %frombool19, ptr %m_model18, align 1
  %13 = load ptr, ptr %p.addr, align 8
  %m_model_validate = getelementptr inbounds %class.context_params, ptr %this1, i32 0, i32 10
  %14 = load i8, ptr %m_model_validate, align 2
  %tobool20 = trunc i8 %14 to i1
  %call21 = call noundef zeroext i1 @_ZNK10params_ref8get_boolEPKcb(ptr noundef nonnull align 8 dereferenceable(8) %13, ptr noundef @.str.14, i1 noundef zeroext %tobool20)
  %m_model_validate22 = getelementptr inbounds %class.context_params, ptr %this1, i32 0, i32 10
  %frombool23 = zext i1 %call21 to i8
  store i8 %frombool23, ptr %m_model_validate22, align 2
  %15 = load ptr, ptr %p.addr, align 8
  %m_dump_models = getelementptr inbounds %class.context_params, ptr %this1, i32 0, i32 11
  %16 = load i8, ptr %m_dump_models, align 1
  %tobool24 = trunc i8 %16 to i1
  %call25 = call noundef zeroext i1 @_ZNK10params_ref8get_boolEPKcb(ptr noundef nonnull align 8 dereferenceable(8) %15, ptr noundef @.str.15, i1 noundef zeroext %tobool24)
  %m_dump_models26 = getelementptr inbounds %class.context_params, ptr %this1, i32 0, i32 11
  %frombool27 = zext i1 %call25 to i8
  store i8 %frombool27, ptr %m_dump_models26, align 1
  %17 = load ptr, ptr %p.addr, align 8
  %m_trace = getelementptr inbounds %class.context_params, ptr %this1, i32 0, i32 7
  %18 = load i8, ptr %m_trace, align 1
  %tobool28 = trunc i8 %18 to i1
  %call29 = call noundef zeroext i1 @_ZNK10params_ref8get_boolEPKcb(ptr noundef nonnull align 8 dereferenceable(8) %17, ptr noundef @.str.17, i1 noundef zeroext %tobool28)
  %m_trace30 = getelementptr inbounds %class.context_params, ptr %this1, i32 0, i32 7
  %frombool31 = zext i1 %call29 to i8
  store i8 %frombool31, ptr %m_trace30, align 1
  %19 = load ptr, ptr %p.addr, align 8
  %call32 = call noundef ptr @_ZNK10params_ref7get_strEPKcS1_(ptr noundef nonnull align 8 dereferenceable(8) %19, ptr noundef @.str.18, ptr noundef @.str.31)
  %m_trace_file_name = getelementptr inbounds %class.context_params, ptr %this1, i32 0, i32 3
  %call33 = call noundef nonnull align 8 dereferenceable(32) ptr @_ZNSt7__cxx1112basic_stringIcSt11char_traitsIcESaIcEEaSEPKc(ptr noundef nonnull align 8 dereferenceable(32) %m_trace_file_name, ptr noundef %call32)
  %20 = load ptr, ptr %p.addr, align 8
  %call34 = call noundef ptr @_ZNK10params_ref7get_strEPKcS1_(ptr noundef nonnull align 8 dereferenceable(8) %20, ptr noundef @.str.19, ptr noundef @.str.32)
  %m_dot_proof_file = getelementptr inbounds %class.context_params, ptr %this1, i32 0, i32 2
  %call35 = call noundef nonnull align 8 dereferenceable(32) ptr @_ZNSt7__cxx1112basic_stringIcSt11char_traitsIcESaIcEEaSEPKc(ptr noundef nonnull align 8 dereferenceable(32) %m_dot_proof_file, ptr noundef %call34)
  %21 = load ptr, ptr %p.addr, align 8
  %m_unsat_core = getelementptr inbounds %class.context_params, ptr %this1, i32 0, i32 12
  %22 = load i8, ptr %m_unsat_core, align 8
  %tobool36 = trunc i8 %22 to i1
  %call37 = call noundef zeroext i1 @_ZNK10params_ref8get_boolEPKcb(ptr noundef nonnull align 8 dereferenceable(8) %21, ptr noundef @.str.20, i1 noundef zeroext %tobool36)
  %conv = zext i1 %call37 to i32
  %m_unsat_core38 = getelementptr inbounds %class.context_params, ptr %this1, i32 0, i32 12
  %23 = load i8, ptr %m_unsat_core38, align 8
  %tobool39 = trunc i8 %23 to i1
  %conv40 = zext i1 %tobool39 to i32
  %or = or i32 %conv40, %conv
  %tobool41 = icmp ne i32 %or, 0
  %frombool42 = zext i1 %tobool41 to i8
  store i8 %frombool42, ptr %m_unsat_core38, align 8
  %24 = load ptr, ptr %p.addr, align 8
  %m_debug_ref_count = getelementptr inbounds %class.context_params, ptr %this1, i32 0, i32 6
  %25 = load i8, ptr %m_debug_ref_count, align 2
  %tobool43 = trunc i8 %25 to i1
  %call44 = call noundef zeroext i1 @_ZNK10params_ref8get_boolEPKcb(ptr noundef nonnull align 8 dereferenceable(8) %24, ptr noundef @.str.21, i1 noundef zeroext %tobool43)
  %m_debug_ref_count45 = getelementptr inbounds %class.context_params, ptr %this1, i32 0, i32 6
  %frombool46 = zext i1 %call44 to i8
  store i8 %frombool46, ptr %m_debug_ref_count45, align 2
  %26 = load ptr, ptr %p.addr, align 8
  %m_smtlib2_compliant = getelementptr inbounds %class.context_params, ptr %this1, i32 0, i32 13
  %27 = load i8, ptr %m_smtlib2_compliant, align 1
  %tobool47 = trunc i8 %27 to i1
  %call48 = call noundef zeroext i1 @_ZNK10params_ref8get_boolEPKcb(ptr noundef nonnull align 8 dereferenceable(8) %26, ptr noundef @.str.22, i1 noundef zeroext %tobool47)
  %m_smtlib2_compliant49 = getelementptr inbounds %class.context_params, ptr %this1, i32 0, i32 13
  %frombool50 = zext i1 %call48 to i8
  store i8 %frombool50, ptr %m_smtlib2_compliant49, align 1
  %28 = load ptr, ptr %p.addr, align 8
  %m_statistics = getelementptr inbounds %class.context_params, ptr %this1, i32 0, i32 14
  %29 = load i8, ptr %m_statistics, align 2
  %tobool51 = trunc i8 %29 to i1
  %call52 = call noundef zeroext i1 @_ZNK10params_ref8get_boolEPKcb(ptr noundef nonnull align 8 dereferenceable(8) %28, ptr noundef @.str.16, i1 noundef zeroext %tobool51)
  %m_statistics53 = getelementptr inbounds %class.context_params, ptr %this1, i32 0, i32 14
  %frombool54 = zext i1 %call52 to i8
  store i8 %frombool54, ptr %m_statistics53, align 2
  %30 = load ptr, ptr %p.addr, align 8
  %m_encoding = getelementptr inbounds %class.context_params, ptr %this1, i32 0, i32 15
  %call55 = call noundef ptr @_ZNKSt7__cxx1112basic_stringIcSt11char_traitsIcESaIcEE5c_strEv(ptr noundef nonnull align 8 dereferenceable(32) %m_encoding) #3
  %call56 = call noundef ptr @_ZNK10params_ref7get_strEPKcS1_(ptr noundef nonnull align 8 dereferenceable(8) %30, ptr noundef @.str.23, ptr noundef %call55)
  %m_encoding57 = getelementptr inbounds %class.context_params, ptr %this1, i32 0, i32 15
  %call58 = call noundef nonnull align 8 dereferenceable(32) ptr @_ZNSt7__cxx1112basic_stringIcSt11char_traitsIcESaIcEEaSEPKc(ptr noundef nonnull align 8 dereferenceable(32) %m_encoding57, ptr noundef %call56)
  ret void
}