; Function Attrs: mustprogress uwtable
define hidden void @_ZN14context_params11updt_paramsERK10params_ref(ptr noundef nonnull align 8 dereferenceable(120) %this, ptr noundef nonnull align 8 dereferenceable(8) %p) local_unnamed_addr #3 align 2 {
entry:
  %m_timeout = getelementptr inbounds i8, ptr %this, i64 4
  %0 = load i32, ptr %m_timeout, align 4
  %call = tail call noundef i32 @_ZNK10params_ref8get_uintEPKcj(ptr noundef nonnull align 8 dereferenceable(8) %p, ptr noundef nonnull @.str.7, i32 noundef %0)
  store i32 %call, ptr %m_timeout, align 4
  %1 = load i32, ptr %this, align 8
  %call3 = tail call noundef i32 @_ZNK10params_ref8get_uintEPKcj(ptr noundef nonnull align 8 dereferenceable(8) %p, ptr noundef nonnull @.str.8, i32 noundef %1)
  store i32 %call3, ptr %this, align 8
  %m_well_sorted_check = getelementptr inbounds i8, ptr %this, i64 76
  %2 = load i8, ptr %m_well_sorted_check, align 4
  %3 = and i8 %2, 1
  %tobool = icmp ne i8 %3, 0
  %call5 = tail call noundef zeroext i1 @_ZNK10params_ref8get_boolEPKcb(ptr noundef nonnull align 8 dereferenceable(8) %p, ptr noundef nonnull @.str.10, i1 noundef zeroext %tobool)
  %call6 = tail call noundef zeroext i1 @_ZNK10params_ref8get_boolEPKcb(ptr noundef nonnull align 8 dereferenceable(8) %p, ptr noundef nonnull @.str.9, i1 noundef zeroext %call5)
  %frombool = zext i1 %call6 to i8
  store i8 %frombool, ptr %m_well_sorted_check, align 4
  %m_auto_config = getelementptr inbounds i8, ptr %this, i64 72
  %4 = load i8, ptr %m_auto_config, align 8
  %5 = and i8 %4, 1
  %tobool8 = icmp ne i8 %5, 0
  %call9 = tail call noundef zeroext i1 @_ZNK10params_ref8get_boolEPKcb(ptr noundef nonnull align 8 dereferenceable(8) %p, ptr noundef nonnull @.str.11, i1 noundef zeroext %tobool8)
  %frombool11 = zext i1 %call9 to i8
  store i8 %frombool11, ptr %m_auto_config, align 8
  %m_proof = getelementptr inbounds i8, ptr %this, i64 73
  %6 = load i8, ptr %m_proof, align 1
  %7 = and i8 %6, 1
  %tobool12 = icmp ne i8 %7, 0
  %call13 = tail call noundef zeroext i1 @_ZNK10params_ref8get_boolEPKcb(ptr noundef nonnull align 8 dereferenceable(8) %p, ptr noundef nonnull @.str.12, i1 noundef zeroext %tobool12)
  %frombool15 = zext i1 %call13 to i8
  store i8 %frombool15, ptr %m_proof, align 1
  %m_model = getelementptr inbounds i8, ptr %this, i64 77
  %8 = load i8, ptr %m_model, align 1
  %9 = and i8 %8, 1
  %tobool16 = icmp ne i8 %9, 0
  %call17 = tail call noundef zeroext i1 @_ZNK10params_ref8get_boolEPKcb(ptr noundef nonnull align 8 dereferenceable(8) %p, ptr noundef nonnull @.str.13, i1 noundef zeroext %tobool16)
  %frombool19 = zext i1 %call17 to i8
  store i8 %frombool19, ptr %m_model, align 1
  %m_model_validate = getelementptr inbounds i8, ptr %this, i64 78
  %10 = load i8, ptr %m_model_validate, align 2
  %11 = and i8 %10, 1
  %tobool20 = icmp ne i8 %11, 0
  %call21 = tail call noundef zeroext i1 @_ZNK10params_ref8get_boolEPKcb(ptr noundef nonnull align 8 dereferenceable(8) %p, ptr noundef nonnull @.str.14, i1 noundef zeroext %tobool20)
  %frombool23 = zext i1 %call21 to i8
  store i8 %frombool23, ptr %m_model_validate, align 2
  %m_dump_models = getelementptr inbounds i8, ptr %this, i64 79
  %12 = load i8, ptr %m_dump_models, align 1
  %13 = and i8 %12, 1
  %tobool24 = icmp ne i8 %13, 0
  %call25 = tail call noundef zeroext i1 @_ZNK10params_ref8get_boolEPKcb(ptr noundef nonnull align 8 dereferenceable(8) %p, ptr noundef nonnull @.str.15, i1 noundef zeroext %tobool24)
  %frombool27 = zext i1 %call25 to i8
  store i8 %frombool27, ptr %m_dump_models, align 1
  %m_trace = getelementptr inbounds i8, ptr %this, i64 75
  %14 = load i8, ptr %m_trace, align 1
  %15 = and i8 %14, 1
  %tobool28 = icmp ne i8 %15, 0
  %call29 = tail call noundef zeroext i1 @_ZNK10params_ref8get_boolEPKcb(ptr noundef nonnull align 8 dereferenceable(8) %p, ptr noundef nonnull @.str.17, i1 noundef zeroext %tobool28)
  %frombool31 = zext i1 %call29 to i8
  store i8 %frombool31, ptr %m_trace, align 1
  %call32 = tail call noundef ptr @_ZNK10params_ref7get_strEPKcS1_(ptr noundef nonnull align 8 dereferenceable(8) %p, ptr noundef nonnull @.str.18, ptr noundef nonnull @.str.31)
  %m_trace_file_name = getelementptr inbounds i8, ptr %this, i64 40
  %call33 = tail call noundef nonnull align 8 dereferenceable(32) ptr @_ZNSt7__cxx1112basic_stringIcSt11char_traitsIcESaIcEEaSEPKc(ptr noundef nonnull align 8 dereferenceable(32) %m_trace_file_name, ptr noundef %call32)
  %call34 = tail call noundef ptr @_ZNK10params_ref7get_strEPKcS1_(ptr noundef nonnull align 8 dereferenceable(8) %p, ptr noundef nonnull @.str.19, ptr noundef nonnull @.str.32)
  %m_dot_proof_file = getelementptr inbounds i8, ptr %this, i64 8
  %call35 = tail call noundef nonnull align 8 dereferenceable(32) ptr @_ZNSt7__cxx1112basic_stringIcSt11char_traitsIcESaIcEEaSEPKc(ptr noundef nonnull align 8 dereferenceable(32) %m_dot_proof_file, ptr noundef %call34)
  %m_unsat_core = getelementptr inbounds i8, ptr %this, i64 80
  %16 = load i8, ptr %m_unsat_core, align 8
  %17 = and i8 %16, 1
  %tobool36 = icmp ne i8 %17, 0
  %call37 = tail call noundef zeroext i1 @_ZNK10params_ref8get_boolEPKcb(ptr noundef nonnull align 8 dereferenceable(8) %p, ptr noundef nonnull @.str.20, i1 noundef zeroext %tobool36)
  %18 = load i8, ptr %m_unsat_core, align 8
  %19 = and i8 %18, 1
  %20 = zext i1 %call37 to i8
  %21 = or i8 %19, %20
  store i8 %21, ptr %m_unsat_core, align 8
  %m_debug_ref_count = getelementptr inbounds i8, ptr %this, i64 74
  %22 = load i8, ptr %m_debug_ref_count, align 2
  %23 = and i8 %22, 1
  %tobool43 = icmp ne i8 %23, 0
  %call44 = tail call noundef zeroext i1 @_ZNK10params_ref8get_boolEPKcb(ptr noundef nonnull align 8 dereferenceable(8) %p, ptr noundef nonnull @.str.21, i1 noundef zeroext %tobool43)
  %frombool46 = zext i1 %call44 to i8
  store i8 %frombool46, ptr %m_debug_ref_count, align 2
  %m_smtlib2_compliant = getelementptr inbounds i8, ptr %this, i64 81
  %24 = load i8, ptr %m_smtlib2_compliant, align 1
  %25 = and i8 %24, 1
  %tobool47 = icmp ne i8 %25, 0
  %call48 = tail call noundef zeroext i1 @_ZNK10params_ref8get_boolEPKcb(ptr noundef nonnull align 8 dereferenceable(8) %p, ptr noundef nonnull @.str.22, i1 noundef zeroext %tobool47)
  %frombool50 = zext i1 %call48 to i8
  store i8 %frombool50, ptr %m_smtlib2_compliant, align 1
  %m_statistics = getelementptr inbounds i8, ptr %this, i64 82
  %26 = load i8, ptr %m_statistics, align 2
  %27 = and i8 %26, 1
  %tobool51 = icmp ne i8 %27, 0
  %call52 = tail call noundef zeroext i1 @_ZNK10params_ref8get_boolEPKcb(ptr noundef nonnull align 8 dereferenceable(8) %p, ptr noundef nonnull @.str.16, i1 noundef zeroext %tobool51)
  %frombool54 = zext i1 %call52 to i8
  store i8 %frombool54, ptr %m_statistics, align 2
  %m_encoding = getelementptr inbounds i8, ptr %this, i64 88
  %call55 = tail call noundef ptr @_ZNKSt7__cxx1112basic_stringIcSt11char_traitsIcESaIcEE5c_strEv(ptr noundef nonnull align 8 dereferenceable(32) %m_encoding) #11
  %call56 = tail call noundef ptr @_ZNK10params_ref7get_strEPKcS1_(ptr noundef nonnull align 8 dereferenceable(8) %p, ptr noundef nonnull @.str.23, ptr noundef %call55)
  %call58 = tail call noundef nonnull align 8 dereferenceable(32) ptr @_ZNSt7__cxx1112basic_stringIcSt11char_traitsIcESaIcEEaSEPKc(ptr noundef nonnull align 8 dereferenceable(32) %m_encoding, ptr noundef %call56)
  ret void
}